; Function Attrs: nofree norecurse nosync nounwind memory(readwrite, inaccessiblemem: none) uwtable
define range(i32 0, 2) i32 @N_VInvTest_Serial(ptr noundef readonly captures(none) %0, ptr noundef readonly captures(none) %1) #8 {
  %3 = load ptr, ptr %0, align 8, !tbaa !39
  %4 = load i64, ptr %3, align 8, !tbaa !32
  %5 = getelementptr inbounds nuw i8, ptr %3, i64 16
  %6 = load ptr, ptr %5, align 8, !tbaa !38
  %7 = load ptr, ptr %1, align 8, !tbaa !39
  %8 = getelementptr inbounds nuw i8, ptr %7, i64 16
  %9 = load ptr, ptr %8, align 8, !tbaa !38
  %10 = icmp sgt i64 %4, 0
  br i1 %10, label %.lr.ph, label %._crit_edge

.lr.ph:                                           ; preds = %2, %17
  %.015 = phi i32 [ %.1, %17 ], [ 1, %2 ]
  %.01214 = phi i64 [ %18, %17 ], [ 0, %2 ]
  %11 = getelementptr inbounds nuw double, ptr %6, i64 %.01214
  %12 = load double, ptr %11, align 8, !tbaa !44
  %13 = fcmp oeq double %12, 0.000000e+00
  br i1 %13, label %17, label %14

14:                                               ; preds = %.lr.ph
  %15 = fdiv double 1.000000e+00, %12
  %16 = getelementptr inbounds nuw double, ptr %9, i64 %.01214
  store double %15, ptr %16, align 8, !tbaa !44
  br label %17

17:                                               ; preds = %.lr.ph, %14
  %.1 = phi i32 [ %.015, %14 ], [ 0, %.lr.ph ]
  %18 = add nuw nsw i64 %.01214, 1
  %exitcond.not = icmp eq i64 %18, %4
  br i1 %exitcond.not, label %._crit_edge, label %.lr.ph, !llvm.loop !75

._crit_edge:                                      ; preds = %17, %2
  %.0.lcssa = phi i32 [ 1, %2 ], [ %.1, %17 ]
  ret i32 %.0.lcssa
}